; ModuleID = '12/868.c'
source_filename = "12/868.c"
target datalayout = "e-m:e-p270:32:32-p271:32:32-p272:64:64-i64:64-f80:128-n8:16:32:64-S128"
target triple = "x86_64-pc-linux-gnu"

@.str = private unnamed_addr constant [3 x i8] c"%d\00", align 1
@.str.1 = private unnamed_addr constant [2 x i8] c"\0A\00", align 1
@.str.2 = private unnamed_addr constant [4 x i8] c"%d\0A\00", align 1

; Function Attrs: noinline nounwind uwtable
define dso_local i32 @main() #0 {
  %1 = alloca i32, align 4
  %2 = alloca [16 x i32], align 16
  %3 = alloca i32, align 4
  %4 = alloca i32, align 4
  %5 = alloca i32, align 4
  %6 = alloca i32, align 4
  store i32 0, i32* %1, align 4
  store i32 0, i32* %3, align 4
  br label %7

7:                                                ; preds = %93, %0
  store i32 0, i32* %4, align 4
  br label %8

8:                                                ; preds = %29, %7
  %9 = load i32, i32* %4, align 4
  %10 = icmp sle i32 %9, 15
  br i1 %10, label %11, label %32

11:                                               ; preds = %8
  %12 = load i32, i32* %4, align 4
  %13 = sext i32 %12 to i64
  %14 = getelementptr inbounds [16 x i32], [16 x i32]* %2, i64 0, i64 %13
  %15 = call i32 (i8*, ...) @__isoc99_scanf(i8* getelementptr inbounds ([3 x i8], [3 x i8]* @.str, i64 0, i64 0), i32* %14)
  %16 = load i32, i32* %4, align 4
  %17 = sext i32 %16 to i64
  %18 = getelementptr inbounds [16 x i32], [16 x i32]* %2, i64 0, i64 %17
  %19 = load i32, i32* %18, align 4
  %20 = icmp eq i32 %19, 0
  br i1 %20, label %21, label %22

21:                                               ; preds = %11
  br label %32

22:                                               ; preds = %11
  %23 = getelementptr inbounds [16 x i32], [16 x i32]* %2, i64 0, i64 0
  %24 = load i32, i32* %23, align 16
  %25 = icmp eq i32 %24, -1
  br i1 %25, label %26, label %28

26:                                               ; preds = %22
  %27 = call i32 (i8*, ...) @printf(i8* getelementptr inbounds ([2 x i8], [2 x i8]* @.str.1, i64 0, i64 0))
  ret i32 0

28:                                               ; preds = %22
  br label %29

29:                                               ; preds = %28
  %30 = load i32, i32* %4, align 4
  %31 = add nsw i32 %30, 1
  store i32 %31, i32* %4, align 4
  br label %8

32:                                               ; preds = %21, %8
  store i32 0, i32* %4, align 4
  store i32 0, i32* %5, align 4
  br label %33

33:                                               ; preds = %87, %32
  %34 = load i32, i32* %4, align 4
  %35 = icmp sle i32 %34, 14
  br i1 %35, label %36, label %90

36:                                               ; preds = %33
  %37 = load i32, i32* %4, align 4
  %38 = add nsw i32 %37, 1
  store i32 %38, i32* %6, align 4
  br label %39

39:                                               ; preds = %80, %36
  %40 = load i32, i32* %6, align 4
  %41 = icmp sle i32 %40, 15
  br i1 %41, label %42, label %83

42:                                               ; preds = %39
  %43 = load i32, i32* %6, align 4
  %44 = sext i32 %43 to i64
  %45 = getelementptr inbounds [16 x i32], [16 x i32]* %2, i64 0, i64 %44
  %46 = load i32, i32* %45, align 4
  %47 = icmp ne i32 %46, 0
  br i1 %47, label %48, label %79

48:                                               ; preds = %42
  %49 = load i32, i32* %4, align 4
  %50 = sext i32 %49 to i64
  %51 = getelementptr inbounds [16 x i32], [16 x i32]* %2, i64 0, i64 %50
  %52 = load i32, i32* %51, align 4
  %53 = icmp ne i32 %52, 0
  br i1 %53, label %54, label %79

54:                                               ; preds = %48
  %55 = load i32, i32* %4, align 4
  %56 = sext i32 %55 to i64
  %57 = getelementptr inbounds [16 x i32], [16 x i32]* %2, i64 0, i64 %56
  %58 = load i32, i32* %57, align 4
  %59 = mul nsw i32 2, %58
  %60 = load i32, i32* %6, align 4
  %61 = sext i32 %60 to i64
  %62 = getelementptr inbounds [16 x i32], [16 x i32]* %2, i64 0, i64 %61
  %63 = load i32, i32* %62, align 4
  %64 = icmp eq i32 %59, %63
  br i1 %64, label %76, label %65

65:                                               ; preds = %54
  %66 = load i32, i32* %6, align 4
  %67 = sext i32 %66 to i64
  %68 = getelementptr inbounds [16 x i32], [16 x i32]* %2, i64 0, i64 %67
  %69 = load i32, i32* %68, align 4
  %70 = mul nsw i32 2, %69
  %71 = load i32, i32* %4, align 4
  %72 = sext i32 %71 to i64
  %73 = getelementptr inbounds [16 x i32], [16 x i32]* %2, i64 0, i64 %72
  %74 = load i32, i32* %73, align 4
  %75 = icmp eq i32 %70, %74
  br i1 %75, label %76, label %79

76:                                               ; preds = %65, %54
  %77 = load i32, i32* %5, align 4
  %78 = add nsw i32 %77, 1
  store i32 %78, i32* %5, align 4
  br label %79

79:                                               ; preds = %76, %65, %48, %42
  br label %80

80:                                               ; preds = %79
  %81 = load i32, i32* %6, align 4
  %82 = add nsw i32 %81, 1
  store i32 %82, i32* %6, align 4
  br label %39

83:                                               ; preds = %39
  %84 = load i32, i32* %4, align 4
  %85 = sext i32 %84 to i64
  %86 = getelementptr inbounds [16 x i32], [16 x i32]* %2, i64 0, i64 %85
  store i32 0, i32* %86, align 4
  br label %87

87:                                               ; preds = %83
  %88 = load i32, i32* %4, align 4
  %89 = add nsw i32 %88, 1
  store i32 %89, i32* %4, align 4
  br label %33

90:                                               ; preds = %33
  %91 = load i32, i32* %5, align 4
  %92 = call i32 (i8*, ...) @printf(i8* getelementptr inbounds ([4 x i8], [4 x i8]* @.str.2, i64 0, i64 0), i32 %91)
  br label %93

93:                                               ; preds = %90
  %94 = load i32, i32* %3, align 4
  %95 = add nsw i32 %94, 1
  store i32 %95, i32* %3, align 4
  br label %7
}

declare dso_local i32 @__isoc99_scanf(i8*, ...) #1

declare dso_local i32 @printf(i8*, ...) #1


!llvm.module.flags = !{!0}
!llvm.ident = !{!1}

!0 = !{i32 1, !"wchar_size", i32 4}
!1 = !{!"clang version 10.0.0-4ubuntu1 "}
